target datalayout = "e-m:e-p270:32:32-p271:32:32-p272:64:64-i64:64-i128:128-f80:128-n8:16:32:64-S128"
target triple = "x86_64-pc-linux-gnu"

%"struct.clang::ento::RangeSet::ContainerType" = type { %"class.llvm::SmallVector", %"class.llvm::FoldingSetBase::Node" }
%"class.llvm::SmallVector" = type { %"class.llvm::SmallVectorImpl", %"struct.llvm::SmallVectorStorage" }
%"class.llvm::SmallVectorImpl" = type { %"class.llvm::SmallVectorTemplateBase" }
%"class.llvm::SmallVectorTemplateBase" = type { %"class.llvm::SmallVectorTemplateCommon" }
%"class.llvm::SmallVectorTemplateCommon" = type { %"class.llvm::SmallVectorBase" }
%"class.llvm::SmallVectorBase" = type { ptr, i32, i32 }
%"struct.llvm::SmallVectorStorage" = type { [64 x i8] }
%"class.llvm::FoldingSetBase::Node" = type { ptr }
%"class.clang::ento::RangeSet" = type { ptr }
%"class.clang::ento::Range" = type { %"struct.std::pair" }
%"struct.std::pair" = type { ptr, ptr }
%"class.clang::ento::APSIntType" = type <{ i32, i8, [3 x i8] }>
%"class.llvm::APSInt" = type { %"class.llvm::APInt.base", i8, [3 x i8] }
%"class.llvm::APInt.base" = type <{ %union.anon, i32 }>
%union.anon = type { i64 }
%"class.llvm::APInt" = type <{ %union.anon, i32, [4 x i8] }>

; Function Attrs: mustprogress nounwind uwtable
define linkonce_odr hidden noundef ptr @_ZNK4llvm25SmallVectorTemplateCommonIN5clang4ento5RangeEvE10getFirstElEv(ptr noundef nonnull align 8 dereferenceable(16) %0) #1 comdat align 2 {
  %2 = alloca ptr, align 8
  store ptr %0, ptr %2, align 8
  %3 = load ptr, ptr %2, align 8
  %4 = getelementptr inbounds i8, ptr %3, i64 16
  ret ptr %4
}

; Function Attrs: mustprogress nounwind uwtable
define linkonce_odr hidden noundef zeroext i1 @_ZNK4llvm25SmallVectorTemplateCommonIN5clang4ento5RangeEvE7isSmallEv(ptr noundef nonnull align 8 dereferenceable(16) %0) #1 comdat align 2 {
  %2 = alloca ptr, align 8
  store ptr %0, ptr %2, align 8
  %3 = load ptr, ptr %2, align 8
  %4 = getelementptr inbounds nuw %"class.llvm::SmallVectorBase", ptr %3, i32 0, i32 0
  %5 = load ptr, ptr %4, align 8
  %6 = call noundef ptr @_ZNK4llvm25SmallVectorTemplateCommonIN5clang4ento5RangeEvE10getFirstElEv(ptr noundef nonnull align 8 dereferenceable(16) %3)
  %7 = icmp eq ptr %5, %6
  ret i1 %7
}

; Function Attrs: mustprogress nounwind uwtable
define linkonce_odr hidden void @_ZN4llvm15SmallVectorImplIN5clang4ento5RangeEED2Ev(ptr noundef nonnull align 8 dereferenceable(16) %0) unnamed_addr #1 comdat align 2 {
  %2 = alloca ptr, align 8
  store ptr %0, ptr %2, align 8
  %3 = load ptr, ptr %2, align 8
  %4 = call noundef zeroext i1 @_ZNK4llvm25SmallVectorTemplateCommonIN5clang4ento5RangeEvE7isSmallEv(ptr noundef nonnull align 8 dereferenceable(16) %3)
  br i1 %4, label %7, label %5

5:                                                ; preds = %1
  %6 = call noundef ptr @_ZN4llvm25SmallVectorTemplateCommonIN5clang4ento5RangeEvE5beginEv(ptr noundef nonnull align 8 dereferenceable(16) %3)
  call void @free(ptr noundef %6) #3
  br label %7

7:                                                ; preds = %5, %1
  ret void
}

; Function Attrs: mustprogress nounwind uwtable
define linkonce_odr hidden void @_ZN4llvm23SmallVectorTemplateBaseIN5clang4ento5RangeELb1EE13destroy_rangeEPS3_S5_(ptr noundef %0, ptr noundef %1) #1 comdat align 2 {
  %3 = alloca ptr, align 8
  %4 = alloca ptr, align 8
  store ptr %0, ptr %3, align 8
  store ptr %1, ptr %4, align 8
  ret void
}

; Function Attrs: mustprogress nounwind uwtable
define linkonce_odr hidden noundef ptr @_ZN4llvm25SmallVectorTemplateCommonIN5clang4ento5RangeEvE3endEv(ptr noundef nonnull align 8 dereferenceable(16) %0) #1 comdat align 2 {
  %2 = alloca ptr, align 8
  store ptr %0, ptr %2, align 8
  %3 = load ptr, ptr %2, align 8
  %4 = call noundef ptr @_ZN4llvm25SmallVectorTemplateCommonIN5clang4ento5RangeEvE5beginEv(ptr noundef nonnull align 8 dereferenceable(16) %3)
  %5 = call noundef i64 @_ZNK4llvm15SmallVectorBaseIjE4sizeEv(ptr noundef nonnull align 8 dereferenceable(16) %3)
  %6 = getelementptr inbounds %"class.clang::ento::Range", ptr %4, i64 %5
  ret ptr %6
}

; Function Attrs: mustprogress nounwind uwtable
define linkonce_odr hidden noundef ptr @_ZN4llvm25SmallVectorTemplateCommonIN5clang4ento5RangeEvE5beginEv(ptr noundef nonnull align 8 dereferenceable(16) %0) #1 comdat align 2 {
  %2 = alloca ptr, align 8
  store ptr %0, ptr %2, align 8
  %3 = load ptr, ptr %2, align 8
  %4 = getelementptr inbounds nuw %"class.llvm::SmallVectorBase", ptr %3, i32 0, i32 0
  %5 = load ptr, ptr %4, align 8
  ret ptr %5
}

; Function Attrs: mustprogress nounwind uwtable
define linkonce_odr hidden noundef ptr @_ZNK4llvm25SmallVectorTemplateCommonIN5clang4ento5RangeEvE5beginEv(ptr noundef nonnull align 8 dereferenceable(16) %0) #1 comdat align 2 {
  %2 = alloca ptr, align 8
  store ptr %0, ptr %2, align 8
  %3 = load ptr, ptr %2, align 8
  %4 = getelementptr inbounds nuw %"class.llvm::SmallVectorBase", ptr %3, i32 0, i32 0
  %5 = load ptr, ptr %4, align 8
  ret ptr %5
}

; Function Attrs: mustprogress nounwind uwtable
define linkonce_odr hidden void @_ZN4llvm11SmallVectorIN5clang4ento5RangeELj4EED2Ev(ptr noundef nonnull align 8 dereferenceable(80) %0) unnamed_addr #1 comdat align 2 {
  %2 = alloca ptr, align 8
  store ptr %0, ptr %2, align 8
  %3 = load ptr, ptr %2, align 8
  %4 = call noundef ptr @_ZN4llvm25SmallVectorTemplateCommonIN5clang4ento5RangeEvE5beginEv(ptr noundef nonnull align 8 dereferenceable(16) %3)
  %5 = call noundef ptr @_ZN4llvm25SmallVectorTemplateCommonIN5clang4ento5RangeEvE3endEv(ptr noundef nonnull align 8 dereferenceable(16) %3)
  call void @_ZN4llvm23SmallVectorTemplateBaseIN5clang4ento5RangeELb1EE13destroy_rangeEPS3_S5_(ptr noundef %4, ptr noundef %5)
  call void @_ZN4llvm15SmallVectorImplIN5clang4ento5RangeEED2Ev(ptr noundef nonnull align 8 dereferenceable(16) %3) #3
  ret void
}

; Function Attrs: mustprogress nounwind uwtable
define linkonce_odr hidden noundef i32 @_ZNK4llvm5APInt11getBitWidthEv(ptr noundef nonnull align 8 dereferenceable(12) %0) #1 comdat align 2 {
  %2 = alloca ptr, align 8
  store ptr %0, ptr %2, align 8
  %3 = load ptr, ptr %2, align 8
  %4 = getelementptr inbounds nuw %"class.llvm::APInt", ptr %3, i32 0, i32 1
  %5 = load i32, ptr %4, align 8
  ret i32 %5
}

; Function Attrs: mustprogress nounwind uwtable
define linkonce_odr hidden noundef zeroext i1 @_ZNK4llvm6APSInt10isUnsignedEv(ptr noundef nonnull align 8 dereferenceable(13) %0) #1 comdat align 2 {
  %2 = alloca ptr, align 8
  store ptr %0, ptr %2, align 8
  %3 = load ptr, ptr %2, align 8
  %4 = getelementptr inbounds nuw %"class.llvm::APSInt", ptr %3, i32 0, i32 1
  %5 = load i8, ptr %4, align 4
  %6 = trunc i8 %5 to i1
  ret i1 %6
}

; Function Attrs: mustprogress nounwind uwtable
define linkonce_odr hidden void @_ZN5clang4ento10APSIntTypeC2ERKN4llvm6APSIntE(ptr noundef nonnull align 4 dereferenceable(5) %0, ptr noundef nonnull align 8 dereferenceable(13) %1) unnamed_addr #1 comdat align 2 {
  %3 = alloca ptr, align 8
  %4 = alloca ptr, align 8
  store ptr %0, ptr %3, align 8
  store ptr %1, ptr %4, align 8
  %5 = load ptr, ptr %3, align 8
  %6 = getelementptr inbounds nuw %"class.clang::ento::APSIntType", ptr %5, i32 0, i32 0
  %7 = load ptr, ptr %4, align 8
  %8 = call noundef i32 @_ZNK4llvm5APInt11getBitWidthEv(ptr noundef nonnull align 8 dereferenceable(12) %7)
  store i32 %8, ptr %6, align 4
  %9 = getelementptr inbounds nuw %"class.clang::ento::APSIntType", ptr %5, i32 0, i32 1
  %10 = load ptr, ptr %4, align 8
  %11 = call noundef zeroext i1 @_ZNK4llvm6APSInt10isUnsignedEv(ptr noundef nonnull align 8 dereferenceable(13) %10)
  %12 = zext i1 %11 to i8
  store i8 %12, ptr %9, align 4
  ret void
}

; Function Attrs: mustprogress nounwind uwtable
define linkonce_odr hidden noundef nonnull align 8 dereferenceable(13) ptr @_ZNK5clang4ento5Range4FromEv(ptr noundef nonnull align 8 dereferenceable(16) %0) #1 comdat align 2 {
  %2 = alloca ptr, align 8
  store ptr %0, ptr %2, align 8
  %3 = load ptr, ptr %2, align 8
  %4 = getelementptr inbounds nuw %"class.clang::ento::Range", ptr %3, i32 0, i32 0
  %5 = getelementptr inbounds nuw %"struct.std::pair", ptr %4, i32 0, i32 0
  %6 = load ptr, ptr %5, align 8
  ret ptr %6
}

; Function Attrs: mustprogress nounwind uwtable
define linkonce_odr hidden noundef ptr @_ZNK5clang4ento8RangeSet5beginEv(ptr noundef nonnull align 8 dereferenceable(8) %0) #1 comdat align 2 {
  %2 = alloca ptr, align 8
  store ptr %0, ptr %2, align 8
  %3 = load ptr, ptr %2, align 8
  %4 = getelementptr inbounds nuw %"class.clang::ento::RangeSet", ptr %3, i32 0, i32 0
  %5 = load ptr, ptr %4, align 8
  %6 = call noundef ptr @_ZNK4llvm25SmallVectorTemplateCommonIN5clang4ento5RangeEvE5beginEv(ptr noundef nonnull align 8 dereferenceable(16) %5)
  ret ptr %6
}

; Function Attrs: mustprogress nounwind uwtable
define linkonce_odr hidden void @_ZN5clang4ento8RangeSet13ContainerTypeD2Ev(ptr noundef nonnull align 8 dereferenceable(88) %0) unnamed_addr #1 comdat align 2 {
  %2 = alloca ptr, align 8
  store ptr %0, ptr %2, align 8
  %3 = load ptr, ptr %2, align 8
  call void @_ZN4llvm11SmallVectorIN5clang4ento5RangeELj4EED2Ev(ptr noundef nonnull align 8 dereferenceable(80) %3) #3
  ret void
}

; Function Attrs: mustprogress nounwind uwtable
define linkonce_odr hidden noundef i32 @_ZNK5clang4ento10APSIntType11getBitWidthEv(ptr noundef nonnull align 4 dereferenceable(5) %0) #1 comdat align 2 {
  %2 = alloca ptr, align 8
  store ptr %0, ptr %2, align 8
  %3 = load ptr, ptr %2, align 8
  %4 = getelementptr inbounds nuw %"class.clang::ento::APSIntType", ptr %3, i32 0, i32 0
  %5 = load i32, ptr %4, align 4
  ret i32 %5
}

; Function Attrs: mustprogress nounwind uwtable
define dso_local noundef i32 @_ZNK5clang4ento8RangeSet11getBitWidthEv(ptr noundef nonnull align 8 dereferenceable(8) %0) #1 align 2 {
  %2 = alloca ptr, align 8
  store ptr %0, ptr %2, align 8
  %3 = load ptr, ptr %2, align 8
  %4 = call noundef ptr @_ZNK5clang4ento8RangeSet5beginEv(ptr noundef nonnull align 8 dereferenceable(8) %3)
  %5 = call noundef nonnull align 8 dereferenceable(13) ptr @_ZNK5clang4ento5Range4FromEv(ptr noundef nonnull align 8 dereferenceable(16) %4)
  %6 = call noundef i32 @_ZNK4llvm5APInt11getBitWidthEv(ptr noundef nonnull align 8 dereferenceable(12) %5)
  ret i32 %6
}

; Function Attrs: mustprogress nounwind uwtable
define linkonce_odr hidden noundef zeroext i1 @_ZNK5clang4ento10APSIntType10isUnsignedEv(ptr noundef nonnull align 4 dereferenceable(5) %0) #1 comdat align 2 {
  %2 = alloca ptr, align 8
  store ptr %0, ptr %2, align 8
  %3 = load ptr, ptr %2, align 8
  %4 = getelementptr inbounds nuw %"class.clang::ento::APSIntType", ptr %3, i32 0, i32 1
  %5 = load i8, ptr %4, align 4
  %6 = trunc i8 %5 to i1
  ret i1 %6
}

; Function Attrs: mustprogress nounwind uwtable
define dso_local noundef zeroext i1 @_ZNK5clang4ento8RangeSet10isUnsignedEv(ptr noundef nonnull align 8 dereferenceable(8) %0) #1 align 2 {
  %2 = alloca ptr, align 8
  store ptr %0, ptr %2, align 8
  %3 = load ptr, ptr %2, align 8
  %4 = call noundef ptr @_ZNK5clang4ento8RangeSet5beginEv(ptr noundef nonnull align 8 dereferenceable(8) %3)
  %5 = call noundef nonnull align 8 dereferenceable(13) ptr @_ZNK5clang4ento5Range4FromEv(ptr noundef nonnull align 8 dereferenceable(16) %4)
  %6 = call noundef zeroext i1 @_ZNK4llvm6APSInt10isUnsignedEv(ptr noundef nonnull align 8 dereferenceable(13) %5)
  ret i1 %6
}

; Function Attrs: mustprogress nounwind uwtable
define linkonce_odr hidden noundef zeroext i1 @_ZNK5clang4ento10APSIntTypeeqERKS1_(ptr noundef nonnull align 4 dereferenceable(5) %0, ptr noundef nonnull align 4 dereferenceable(5) %1) #1 comdat align 2 {
  %3 = alloca ptr, align 8
  %4 = alloca ptr, align 8
  store ptr %0, ptr %3, align 8
  store ptr %1, ptr %4, align 8
  %5 = load ptr, ptr %3, align 8
  %6 = getelementptr inbounds nuw %"class.clang::ento::APSIntType", ptr %5, i32 0, i32 0
  %7 = load i32, ptr %6, align 4
  %8 = load ptr, ptr %4, align 8
  %9 = getelementptr inbounds nuw %"class.clang::ento::APSIntType", ptr %8, i32 0, i32 0
  %10 = load i32, ptr %9, align 4
  %11 = icmp eq i32 %7, %10
  br i1 %11, label %12, label %23

12:                                               ; preds = %2
  %13 = getelementptr inbounds nuw %"class.clang::ento::APSIntType", ptr %5, i32 0, i32 1
  %14 = load i8, ptr %13, align 4
  %15 = trunc i8 %14 to i1
  %16 = zext i1 %15 to i32
  %17 = load ptr, ptr %4, align 8
  %18 = getelementptr inbounds nuw %"class.clang::ento::APSIntType", ptr %17, i32 0, i32 1
  %19 = load i8, ptr %18, align 4
  %20 = trunc i8 %19 to i1
  %21 = zext i1 %20 to i32
  %22 = icmp eq i32 %16, %21
  br label %23

23:                                               ; preds = %12, %2
  %24 = phi i1 [ false, %2 ], [ %22, %12 ]
  ret i1 %24
}

; Function Attrs: mustprogress nounwind uwtable
define dso_local i64 @_ZNK5clang4ento8RangeSet13getAPSIntTypeEv(ptr noundef nonnull align 8 dereferenceable(8) %0) #1 align 2 {
  %2 = alloca %"class.clang::ento::APSIntType", align 4
  %3 = alloca ptr, align 8
  store ptr %0, ptr %3, align 8
  %4 = load ptr, ptr %3, align 8
  %5 = call noundef ptr @_ZNK5clang4ento8RangeSet5beginEv(ptr noundef nonnull align 8 dereferenceable(8) %4)
  %6 = call noundef nonnull align 8 dereferenceable(13) ptr @_ZNK5clang4ento5Range4FromEv(ptr noundef nonnull align 8 dereferenceable(16) %5)
  call void @_ZN5clang4ento10APSIntTypeC2ERKN4llvm6APSIntE(ptr noundef nonnull align 4 dereferenceable(5) %2, ptr noundef nonnull align 8 dereferenceable(13) %6)
  %7 = load i64, ptr %2, align 4
  ret i64 %7
}

; Function Attrs: mustprogress nounwind uwtable
define linkonce_odr hidden noundef zeroext i1 @_ZNK5clang4ento8RangeSet7isEmptyEv(ptr noundef nonnull align 8 dereferenceable(8) %0) #1 comdat align 2 {
  %2 = alloca ptr, align 8
  store ptr %0, ptr %2, align 8
  %3 = load ptr, ptr %2, align 8
  %4 = getelementptr inbounds nuw %"class.clang::ento::RangeSet", ptr %3, i32 0, i32 0
  %5 = load ptr, ptr %4, align 8
  %6 = call noundef zeroext i1 @_ZNK4llvm15SmallVectorBaseIjE5emptyEv(ptr noundef nonnull align 8 dereferenceable(16) %5)
  ret i1 %6
}

; Function Attrs: mustprogress nounwind uwtable
define dso_local ptr @_ZN5clang4ento8RangeSet7Factory6castToES1_NS0_10APSIntTypeE(ptr noundef nonnull align 8 dereferenceable(120) %0, ptr %1, i64 %2) #1 align 2 {
  %4 = alloca %"class.clang::ento::RangeSet", align 8
  %5 = alloca %"class.clang::ento::RangeSet", align 8
  %6 = alloca %"class.clang::ento::APSIntType", align 4
  %7 = alloca ptr, align 8
  %8 = alloca %"class.clang::ento::APSIntType", align 4
  %9 = alloca i8, align 1
  %10 = alloca i8, align 1
  %11 = alloca i8, align 1
  %12 = alloca %"struct.clang::ento::RangeSet::ContainerType", align 8
  %13 = alloca %"class.clang::ento::RangeSet", align 8
  %14 = alloca %"class.clang::ento::APSIntType", align 4
  %15 = alloca %"struct.clang::ento::RangeSet::ContainerType", align 8
  %16 = alloca %"class.clang::ento::RangeSet", align 8
  %17 = alloca %"class.clang::ento::APSIntType", align 4
  %18 = alloca %"struct.clang::ento::RangeSet::ContainerType", align 8
  %19 = alloca %"class.clang::ento::RangeSet", align 8
  %20 = alloca %"class.clang::ento::APSIntType", align 4
  %21 = getelementptr inbounds nuw %"class.clang::ento::RangeSet", ptr %5, i32 0, i32 0
  store ptr %1, ptr %21, align 8
  store i64 %2, ptr %6, align 4
  store ptr %0, ptr %7, align 8
  %22 = load ptr, ptr %7, align 8
  %23 = call noundef zeroext i1 @_ZNK5clang4ento8RangeSet7isEmptyEv(ptr noundef nonnull align 8 dereferenceable(8) %5)
  br i1 %23, label %28, label %24

24:                                               ; preds = %3
  %25 = call i64 @_ZNK5clang4ento8RangeSet13getAPSIntTypeEv(ptr noundef nonnull align 8 dereferenceable(8) %5)
  %26 = trunc i64 %25 to i40
  store i40 %26, ptr %8, align 4
  %27 = call noundef zeroext i1 @_ZNK5clang4ento10APSIntTypeeqERKS1_(ptr noundef nonnull align 4 dereferenceable(5) %8, ptr noundef nonnull align 4 dereferenceable(5) %6)
  br label %28

28:                                               ; preds = %24, %3
  %29 = phi i1 [ true, %3 ], [ %27, %24 ]
  br i1 %29, label %30, label %31

30:                                               ; preds = %28
  call void @llvm.memcpy.p0.p0.i64(ptr align 8 %4, ptr align 8 %5, i64 8, i1 false)
  br label %74

31:                                               ; preds = %28
  %32 = call noundef zeroext i1 @_ZNK5clang4ento8RangeSet10isUnsignedEv(ptr noundef nonnull align 8 dereferenceable(8) %5)
  %33 = zext i1 %32 to i32
  %34 = call noundef zeroext i1 @_ZNK5clang4ento10APSIntType10isUnsignedEv(ptr noundef nonnull align 4 dereferenceable(5) %6)
  %35 = zext i1 %34 to i32
  %36 = icmp ne i32 %33, %35
  %37 = zext i1 %36 to i8
  store i8 %37, ptr %9, align 1
  %38 = call noundef i32 @_ZNK5clang4ento8RangeSet11getBitWidthEv(ptr noundef nonnull align 8 dereferenceable(8) %5)
  %39 = call noundef i32 @_ZNK5clang4ento10APSIntType11getBitWidthEv(ptr noundef nonnull align 4 dereferenceable(5) %6)
  %40 = icmp ugt i32 %38, %39
  %41 = zext i1 %40 to i8
  store i8 %41, ptr %10, align 1
  %42 = call noundef i32 @_ZNK5clang4ento8RangeSet11getBitWidthEv(ptr noundef nonnull align 8 dereferenceable(8) %5)
  %43 = call noundef i32 @_ZNK5clang4ento10APSIntType11getBitWidthEv(ptr noundef nonnull align 4 dereferenceable(5) %6)
  %44 = icmp ult i32 %42, %43
  %45 = zext i1 %44 to i8
  store i8 %45, ptr %11, align 1
  %46 = load i8, ptr %10, align 1
  %47 = trunc i8 %46 to i1
  br i1 %47, label %48, label %54

48:                                               ; preds = %31
  call void @llvm.memcpy.p0.p0.i64(ptr align 8 %13, ptr align 8 %5, i64 8, i1 false)
  call void @llvm.memcpy.p0.p0.i64(ptr align 4 %14, ptr align 4 %6, i64 8, i1 false)
  %49 = getelementptr inbounds nuw %"class.clang::ento::RangeSet", ptr %13, i32 0, i32 0
  %50 = load ptr, ptr %49, align 8
  %51 = load i64, ptr %14, align 4
  call void @_ZN5clang4ento8RangeSet7Factory10truncateToES1_NS0_10APSIntTypeE(ptr dead_on_unwind writable sret(%"struct.clang::ento::RangeSet::ContainerType") align 8 %12, ptr noundef nonnull align 8 dereferenceable(120) %22, ptr %50, i64 %51)
  %52 = call ptr @_ZN5clang4ento8RangeSet7Factory14makePersistentEONS1_13ContainerTypeE(ptr noundef nonnull align 8 dereferenceable(120) %22, ptr noundef nonnull align 8 dereferenceable(88) %12)
  %53 = getelementptr inbounds nuw %"class.clang::ento::RangeSet", ptr %4, i32 0, i32 0
  store ptr %52, ptr %53, align 8
  call void @_ZN5clang4ento8RangeSet13ContainerTypeD2Ev(ptr noundef nonnull align 8 dereferenceable(88) %12) #3
  br label %74

54:                                               ; preds = %31
  %55 = load i8, ptr %9, align 1
  %56 = trunc i8 %55 to i1
  br i1 %56, label %57, label %68

57:                                               ; preds = %54
  %58 = load i8, ptr %11, align 1
  %59 = trunc i8 %58 to i1
  br i1 %59, label %60, label %62

60:                                               ; preds = %57
  %61 = call noundef zeroext i1 @_ZNK5clang4ento8RangeSet10isUnsignedEv(ptr noundef nonnull align 8 dereferenceable(8) %5)
  br i1 %61, label %68, label %62

62:                                               ; preds = %60, %57
  call void @llvm.memcpy.p0.p0.i64(ptr align 8 %16, ptr align 8 %5, i64 8, i1 false)
  call void @llvm.memcpy.p0.p0.i64(ptr align 4 %17, ptr align 4 %6, i64 8, i1 false)
  %63 = getelementptr inbounds nuw %"class.clang::ento::RangeSet", ptr %16, i32 0, i32 0
  %64 = load ptr, ptr %63, align 8
  %65 = load i64, ptr %17, align 4
  call void @_ZN5clang4ento8RangeSet7Factory9convertToES1_NS0_10APSIntTypeE(ptr dead_on_unwind writable sret(%"struct.clang::ento::RangeSet::ContainerType") align 8 %15, ptr noundef nonnull align 8 dereferenceable(120) %22, ptr %64, i64 %65)
  %66 = call ptr @_ZN5clang4ento8RangeSet7Factory14makePersistentEONS1_13ContainerTypeE(ptr noundef nonnull align 8 dereferenceable(120) %22, ptr noundef nonnull align 8 dereferenceable(88) %15)
  %67 = getelementptr inbounds nuw %"class.clang::ento::RangeSet", ptr %4, i32 0, i32 0
  store ptr %66, ptr %67, align 8
  call void @_ZN5clang4ento8RangeSet13ContainerTypeD2Ev(ptr noundef nonnull align 8 dereferenceable(88) %15) #3
  br label %74

68:                                               ; preds = %60, %54
  call void @llvm.memcpy.p0.p0.i64(ptr align 8 %19, ptr align 8 %5, i64 8, i1 false)
  call void @llvm.memcpy.p0.p0.i64(ptr align 4 %20, ptr align 4 %6, i64 8, i1 false)
  %69 = getelementptr inbounds nuw %"class.clang::ento::RangeSet", ptr %19, i32 0, i32 0
  %70 = load ptr, ptr %69, align 8
  %71 = load i64, ptr %20, align 4
  call void @_ZN5clang4ento8RangeSet7Factory9promoteToES1_NS0_10APSIntTypeE(ptr dead_on_unwind writable sret(%"struct.clang::ento::RangeSet::ContainerType") align 8 %18, ptr noundef nonnull align 8 dereferenceable(120) %22, ptr %70, i64 %71)
  %72 = call ptr @_ZN5clang4ento8RangeSet7Factory14makePersistentEONS1_13ContainerTypeE(ptr noundef nonnull align 8 dereferenceable(120) %22, ptr noundef nonnull align 8 dereferenceable(88) %18)
  %73 = getelementptr inbounds nuw %"class.clang::ento::RangeSet", ptr %4, i32 0, i32 0
  store ptr %72, ptr %73, align 8
  call void @_ZN5clang4ento8RangeSet13ContainerTypeD2Ev(ptr noundef nonnull align 8 dereferenceable(88) %18) #3
  br label %74

74:                                               ; preds = %68, %62, %48, %30
  %75 = getelementptr inbounds nuw %"class.clang::ento::RangeSet", ptr %4, i32 0, i32 0
  %76 = load ptr, ptr %75, align 8
  ret ptr %76
}