; Function Attrs: mustprogress nounwind uwtable
define dso_local ptr @_ZN5clang4ento8RangeSet7Factory6castToES1_NS0_10APSIntTypeE(ptr noundef nonnull align 8 dereferenceable(120) %0, ptr nonnull %1, i64 %2) local_unnamed_addr #1 align 2 {
  %4 = alloca %"struct.clang::ento::RangeSet::ContainerType", align 8
  %5 = alloca %"struct.clang::ento::RangeSet::ContainerType", align 8
  %6 = alloca %"struct.clang::ento::RangeSet::ContainerType", align 8
  %.sroa.011.0.extract.trunc = trunc i64 %2 to i32
  %.sroa.7.0.extract.shift = lshr i64 %2, 32
  %.sroa.7.0.extract.trunc = trunc i64 %.sroa.7.0.extract.shift to i8
  %7 = tail call noundef zeroext i1 @_ZNK4llvm15SmallVectorBaseIjE5emptyEv(ptr noundef nonnull align 8 dereferenceable(16) %1) #22
  br i1 %7, label %.critedge, label %8

8:                                                ; preds = %3
  %9 = load ptr, ptr %1, align 8
  %10 = load ptr, ptr %9, align 8
  %11 = getelementptr inbounds nuw i8, ptr %10, i64 8
  %12 = load i32, ptr %11, align 8
  %13 = getelementptr inbounds nuw i8, ptr %10, i64 12
  %14 = load i8, ptr %13, align 4
  %15 = icmp eq i32 %12, %.sroa.011.0.extract.trunc
  br i1 %15, label %_ZNK5clang4ento10APSIntTypeeqERKS1_.exit, label %_ZNK5clang4ento10APSIntTypeeqERKS1_.exit.thread

_ZNK5clang4ento10APSIntTypeeqERKS1_.exit:         ; preds = %8
  %16 = xor i8 %14, %.sroa.7.0.extract.trunc
  %17 = and i8 %16, 1
  %18 = icmp eq i8 %17, 0
  br i1 %18, label %.critedge, label %_ZNK5clang4ento10APSIntTypeeqERKS1_.exit.thread

_ZNK5clang4ento10APSIntTypeeqERKS1_.exit.thread:  ; preds = %8, %_ZNK5clang4ento10APSIntTypeeqERKS1_.exit
  %19 = icmp ugt i32 %12, %.sroa.011.0.extract.trunc
  br i1 %19, label %20, label %26

20:                                               ; preds = %_ZNK5clang4ento10APSIntTypeeqERKS1_.exit.thread
  call void @_ZN5clang4ento8RangeSet7Factory10truncateToES1_NS0_10APSIntTypeE(ptr dead_on_unwind nonnull writable sret(%"struct.clang::ento::RangeSet::ContainerType") align 8 %4, ptr noundef nonnull align 8 dereferenceable(120) %0, ptr nonnull %1, i64 %2)
  %21 = call ptr @_ZN5clang4ento8RangeSet7Factory14makePersistentEONS1_13ContainerTypeE(ptr noundef nonnull align 8 dereferenceable(120) %0, ptr noundef nonnull align 8 dereferenceable(88) %4)
  %22 = call noundef i64 @_ZNK4llvm15SmallVectorBaseIjE4sizeEv(ptr noundef nonnull align 8 dereferenceable(16) %4) #22
  %23 = load ptr, ptr %4, align 8
  %24 = getelementptr inbounds i8, ptr %4, i64 16
  %25 = icmp eq ptr %23, %24
  br i1 %25, label %.critedge, label %.critedge.sink.split

26:                                               ; preds = %_ZNK5clang4ento10APSIntTypeeqERKS1_.exit.thread
  %27 = icmp ult i32 %12, %.sroa.011.0.extract.trunc
  %28 = trunc i8 %14 to i1
  %29 = trunc i64 %.sroa.7.0.extract.shift to i1
  %30 = xor i1 %29, %28
  %.not = xor i1 %30, true
  %brmerge.not = and i1 %27, %28
  %or.cond = select i1 %.not, i1 true, i1 %brmerge.not
  br i1 %or.cond, label %37, label %31

31:                                               ; preds = %26
  call void @_ZN5clang4ento8RangeSet7Factory9convertToES1_NS0_10APSIntTypeE(ptr dead_on_unwind nonnull writable sret(%"struct.clang::ento::RangeSet::ContainerType") align 8 %5, ptr noundef nonnull align 8 dereferenceable(120) %0, ptr nonnull %1, i64 %2)
  %32 = call ptr @_ZN5clang4ento8RangeSet7Factory14makePersistentEONS1_13ContainerTypeE(ptr noundef nonnull align 8 dereferenceable(120) %0, ptr noundef nonnull align 8 dereferenceable(88) %5)
  %33 = call noundef i64 @_ZNK4llvm15SmallVectorBaseIjE4sizeEv(ptr noundef nonnull align 8 dereferenceable(16) %5) #22
  %34 = load ptr, ptr %5, align 8
  %35 = getelementptr inbounds i8, ptr %5, i64 16
  %36 = icmp eq ptr %34, %35
  br i1 %36, label %.critedge, label %.critedge.sink.split

37:                                               ; preds = %26
  call void @_ZN5clang4ento8RangeSet7Factory9promoteToES1_NS0_10APSIntTypeE(ptr dead_on_unwind nonnull writable sret(%"struct.clang::ento::RangeSet::ContainerType") align 8 %6, ptr noundef nonnull align 8 dereferenceable(120) %0, ptr nonnull %1, i64 %2)
  %38 = call ptr @_ZN5clang4ento8RangeSet7Factory14makePersistentEONS1_13ContainerTypeE(ptr noundef nonnull align 8 dereferenceable(120) %0, ptr noundef nonnull align 8 dereferenceable(88) %6)
  %39 = call noundef i64 @_ZNK4llvm15SmallVectorBaseIjE4sizeEv(ptr noundef nonnull align 8 dereferenceable(16) %6) #22
  %40 = load ptr, ptr %6, align 8
  %41 = getelementptr inbounds i8, ptr %6, i64 16
  %42 = icmp eq ptr %40, %41
  br i1 %42, label %.critedge, label %.critedge.sink.split

.critedge.sink.split:                             ; preds = %37, %31, %20
  %.sink = phi ptr [ %23, %20 ], [ %34, %31 ], [ %40, %37 ]
  %.sroa.08.0.ph = phi ptr [ %21, %20 ], [ %32, %31 ], [ %38, %37 ]
  call void @free(ptr noundef %.sink) #22
  br label %.critedge

.critedge:                                        ; preds = %.critedge.sink.split, %37, %31, %20, %_ZNK5clang4ento10APSIntTypeeqERKS1_.exit, %3
  %.sroa.08.0 = phi ptr [ %1, %3 ], [ %1, %_ZNK5clang4ento10APSIntTypeeqERKS1_.exit ], [ %21, %20 ], [ %32, %31 ], [ %38, %37 ], [ %.sroa.08.0.ph, %.critedge.sink.split ]
  ret ptr %.sroa.08.0
}